; Function Attrs: nounwind uwtable
define noalias noundef nonnull ptr @l_MonadExcept_ofExcept___at_Lean_Meta_whnfImp___spec__2(ptr noundef %0, ptr readnone captures(none) %1, ptr readnone captures(none) %2, ptr readnone captures(none) %3, ptr readnone captures(none) %4, ptr noundef %5) local_unnamed_addr #1 {
  %7 = ptrtoint ptr %0 to i64
  %8 = and i64 %7, 1
  %.not.i = icmp eq i64 %8, 0
  br i1 %.not.i, label %12, label %9

9:                                                ; preds = %6
  %10 = lshr i64 %7, 1
  %11 = trunc i64 %10 to i32
  br label %lean_obj_tag.exit

12:                                               ; preds = %6
  %13 = getelementptr i8, ptr %0, i64 4
  %.val.i = load i32, ptr %13, align 4
  %14 = lshr i32 %.val.i, 24
  br label %lean_obj_tag.exit

lean_obj_tag.exit:                                ; preds = %9, %12
  %.0.i = phi i32 [ %11, %9 ], [ %14, %12 ]
  %15 = icmp eq i32 %.0.i, 0
  %16 = getelementptr inbounds nuw i8, ptr %0, i64 8
  %17 = load ptr, ptr %16, align 8, !tbaa !12
  %18 = ptrtoint ptr %17 to i64
  %19 = and i64 %18, 1
  %.not23 = icmp eq i64 %19, 0
  br i1 %15, label %20, label %30

20:                                               ; preds = %lean_obj_tag.exit
  br i1 %.not23, label %21, label %lean_inc.exit16

21:                                               ; preds = %20
  %.val.i17 = load i32, ptr %17, align 4, !tbaa !4
  %22 = icmp sgt i32 %.val.i17, 0
  br i1 %22, label %23, label %25, !prof !11

23:                                               ; preds = %21
  %24 = add nuw i32 %.val.i17, 1
  store i32 %24, ptr %17, align 4, !tbaa !4
  br label %lean_inc.exit16

25:                                               ; preds = %21
  %.not.i18 = icmp eq i32 %.val.i17, 0
  br i1 %.not.i18, label %lean_inc.exit16, label %26

26:                                               ; preds = %25
  tail call void @lean_inc_ref_cold(ptr noundef nonnull %17) #5
  br label %lean_inc.exit16

lean_inc.exit16:                                  ; preds = %26, %25, %23, %20
  tail call void @lean_inc_heartbeat() #5
  %27 = tail call noalias ptr @mi_malloc_small(i64 noundef 24) #5
  %28 = icmp eq ptr %27, null
  br i1 %28, label %29, label %lean_alloc_ctor.exit

29:                                               ; preds = %lean_inc.exit16
  tail call void @lean_internal_panic_out_of_memory() #4
  unreachable

30:                                               ; preds = %lean_obj_tag.exit
  br i1 %.not23, label %31, label %lean_inc.exit

31:                                               ; preds = %30
  %.val.i19 = load i32, ptr %17, align 4, !tbaa !4
  %32 = icmp sgt i32 %.val.i19, 0
  br i1 %32, label %33, label %35, !prof !11

33:                                               ; preds = %31
  %34 = add nuw i32 %.val.i19, 1
  store i32 %34, ptr %17, align 4, !tbaa !4
  br label %lean_inc.exit

35:                                               ; preds = %31
  %.not.i20 = icmp eq i32 %.val.i19, 0
  br i1 %.not.i20, label %lean_inc.exit, label %36

36:                                               ; preds = %35
  tail call void @lean_inc_ref_cold(ptr noundef nonnull %17) #5
  br label %lean_inc.exit

lean_inc.exit:                                    ; preds = %36, %35, %33, %30
  tail call void @lean_inc_heartbeat() #5
  %37 = tail call noalias ptr @mi_malloc_small(i64 noundef 24) #5
  %38 = icmp eq ptr %37, null
  br i1 %38, label %39, label %lean_alloc_ctor.exit

39:                                               ; preds = %lean_inc.exit
  tail call void @lean_internal_panic_out_of_memory() #4
  unreachable

lean_alloc_ctor.exit:                             ; preds = %lean_inc.exit, %lean_inc.exit16
  %.sink28 = phi ptr [ %27, %lean_inc.exit16 ], [ %37, %lean_inc.exit ]
  %.sink = phi i32 [ 16908312, %lean_inc.exit16 ], [ 131096, %lean_inc.exit ]
  %40 = getelementptr inbounds nuw i8, ptr %.sink28, i64 4
  store i32 1, ptr %.sink28, align 4, !tbaa !4
  store i32 %.sink, ptr %40, align 4
  %41 = getelementptr inbounds nuw i8, ptr %.sink28, i64 8
  store ptr %17, ptr %41, align 8, !tbaa !12
  %42 = getelementptr inbounds nuw i8, ptr %.sink28, i64 16
  store ptr %5, ptr %42, align 8, !tbaa !12
  ret ptr %.sink28
}